target datalayout = "e-m:e-p270:32:32-p271:32:32-p272:64:64-i64:64-i128:128-f80:128-n8:16:32:64-S128"
target triple = "x86_64-pc-linux-gnu"

%"class.std::vector.11" = type { %"struct.std::_Vector_base.12" }
%"struct.std::_Vector_base.12" = type { %"struct.std::_Vector_base<double, std::allocator<double>>::_Vector_impl" }
%"struct.std::_Vector_base<double, std::allocator<double>>::_Vector_impl" = type { %"struct.std::_Vector_base<double, std::allocator<double>>::_Vector_impl_data" }
%"struct.std::_Vector_base<double, std::allocator<double>>::_Vector_impl_data" = type { ptr, ptr, ptr }
%"class.OpenColorIO_v2_5dev::L2LBaseRenderer" = type { %"class.OpenColorIO_v2_5dev::LogOpCPU", float, %"class.std::vector.11", %"class.std::vector.11", %"class.std::vector.11" }
%"class.OpenColorIO_v2_5dev::LogOpCPU" = type { %"class.OpenColorIO_v2_5dev::OpCPU" }
%"class.OpenColorIO_v2_5dev::OpCPU" = type { ptr }
%"class.OpenColorIO_v2_5dev::Lin2LogRenderer" = type { %"class.OpenColorIO_v2_5dev::L2LBaseRenderer", [3 x float], [3 x float], [3 x float], [3 x float] }

; Function Attrs: mustprogress nounwind uwtable
define linkonce_odr noundef float @_ZSt4log2f(float noundef %0) #6 comdat {
  %2 = alloca float, align 4
  store float %0, ptr %2, align 4, !tbaa !14
  %3 = load float, ptr %2, align 4, !tbaa !14
  %4 = call float @log2f(float noundef %3) #3, !tbaa !141
  ret float %4
}

; Function Attrs: inlinehint mustprogress nounwind uwtable
define linkonce_odr noundef nonnull align 4 dereferenceable(4) ptr @_ZSt3maxIfERKT_S2_S2_(ptr noundef nonnull align 4 dereferenceable(4) %0, ptr noundef nonnull align 4 dereferenceable(4) %1) #9 comdat {
  %3 = alloca ptr, align 8
  %4 = alloca ptr, align 8
  %5 = alloca ptr, align 8
  store ptr %0, ptr %4, align 8, !tbaa !47
  store ptr %1, ptr %5, align 8, !tbaa !47
  %6 = load ptr, ptr %4, align 8, !tbaa !47
  %7 = load float, ptr %6, align 4, !tbaa !14
  %8 = load ptr, ptr %5, align 8, !tbaa !47
  %9 = load float, ptr %8, align 4, !tbaa !14
  %10 = fcmp olt float %7, %9
  br i1 %10, label %11, label %13

11:                                               ; preds = %2
  %12 = load ptr, ptr %5, align 8, !tbaa !47
  store ptr %12, ptr %3, align 8
  br label %15

13:                                               ; preds = %2
  %14 = load ptr, ptr %4, align 8, !tbaa !47
  store ptr %14, ptr %3, align 8
  br label %15

15:                                               ; preds = %13, %11
  %16 = load ptr, ptr %3, align 8
  ret ptr %16
}

; Function Attrs: inlinehint mustprogress uwtable
define linkonce_odr hidden void @_ZN19OpenColorIO_v2_5dev9ApplyLog2EPf(ptr noundef %0) #7 comdat {
  %2 = alloca ptr, align 8
  store ptr %0, ptr %2, align 8, !tbaa !47
  %3 = load ptr, ptr %2, align 8, !tbaa !47
  %4 = getelementptr inbounds float, ptr %3, i64 0
  %5 = load float, ptr %4, align 4, !tbaa !14
  %6 = call noundef float @_ZSt4log2f(float noundef %5)
  %7 = load ptr, ptr %2, align 8, !tbaa !47
  %8 = getelementptr inbounds float, ptr %7, i64 0
  store float %6, ptr %8, align 4, !tbaa !14
  %9 = load ptr, ptr %2, align 8, !tbaa !47
  %10 = getelementptr inbounds float, ptr %9, i64 1
  %11 = load float, ptr %10, align 4, !tbaa !14
  %12 = call noundef float @_ZSt4log2f(float noundef %11)
  %13 = load ptr, ptr %2, align 8, !tbaa !47
  %14 = getelementptr inbounds float, ptr %13, i64 1
  store float %12, ptr %14, align 4, !tbaa !14
  %15 = load ptr, ptr %2, align 8, !tbaa !47
  %16 = getelementptr inbounds float, ptr %15, i64 2
  %17 = load float, ptr %16, align 4, !tbaa !14
  %18 = call noundef float @_ZSt4log2f(float noundef %17)
  %19 = load ptr, ptr %2, align 8, !tbaa !47
  %20 = getelementptr inbounds float, ptr %19, i64 2
  store float %18, ptr %20, align 4, !tbaa !14
  ret void
}

; Function Attrs: inlinehint mustprogress uwtable
define linkonce_odr hidden void @_ZN19OpenColorIO_v2_5dev8ApplyMaxEPff(ptr noundef %0, float noundef %1) #7 comdat {
  %3 = alloca ptr, align 8
  %4 = alloca float, align 4
  store ptr %0, ptr %3, align 8, !tbaa !47
  store float %1, ptr %4, align 4, !tbaa !14
  %5 = load ptr, ptr %3, align 8, !tbaa !47
  %6 = getelementptr inbounds float, ptr %5, i64 0
  %7 = call noundef nonnull align 4 dereferenceable(4) ptr @_ZSt3maxIfERKT_S2_S2_(ptr noundef nonnull align 4 dereferenceable(4) %4, ptr noundef nonnull align 4 dereferenceable(4) %6)
  %8 = load float, ptr %7, align 4, !tbaa !14
  %9 = load ptr, ptr %3, align 8, !tbaa !47
  %10 = getelementptr inbounds float, ptr %9, i64 0
  store float %8, ptr %10, align 4, !tbaa !14
  %11 = load ptr, ptr %3, align 8, !tbaa !47
  %12 = getelementptr inbounds float, ptr %11, i64 1
  %13 = call noundef nonnull align 4 dereferenceable(4) ptr @_ZSt3maxIfERKT_S2_S2_(ptr noundef nonnull align 4 dereferenceable(4) %4, ptr noundef nonnull align 4 dereferenceable(4) %12)
  %14 = load float, ptr %13, align 4, !tbaa !14
  %15 = load ptr, ptr %3, align 8, !tbaa !47
  %16 = getelementptr inbounds float, ptr %15, i64 1
  store float %14, ptr %16, align 4, !tbaa !14
  %17 = load ptr, ptr %3, align 8, !tbaa !47
  %18 = getelementptr inbounds float, ptr %17, i64 2
  %19 = call noundef nonnull align 4 dereferenceable(4) ptr @_ZSt3maxIfERKT_S2_S2_(ptr noundef nonnull align 4 dereferenceable(4) %4, ptr noundef nonnull align 4 dereferenceable(4) %18)
  %20 = load float, ptr %19, align 4, !tbaa !14
  %21 = load ptr, ptr %3, align 8, !tbaa !47
  %22 = getelementptr inbounds float, ptr %21, i64 2
  store float %20, ptr %22, align 4, !tbaa !14
  ret void
}

; Function Attrs: inlinehint mustprogress nounwind uwtable
define linkonce_odr hidden void @_ZN19OpenColorIO_v2_5dev8ApplyAddEPfPKf(ptr noundef %0, ptr noundef %1) #9 comdat {
  %3 = alloca ptr, align 8
  %4 = alloca ptr, align 8
  store ptr %0, ptr %3, align 8, !tbaa !47
  store ptr %1, ptr %4, align 8, !tbaa !47
  %5 = load ptr, ptr %3, align 8, !tbaa !47
  %6 = getelementptr inbounds float, ptr %5, i64 0
  %7 = load float, ptr %6, align 4, !tbaa !14
  %8 = load ptr, ptr %4, align 8, !tbaa !47
  %9 = getelementptr inbounds float, ptr %8, i64 0
  %10 = load float, ptr %9, align 4, !tbaa !14
  %11 = fadd float %7, %10
  %12 = load ptr, ptr %3, align 8, !tbaa !47
  %13 = getelementptr inbounds float, ptr %12, i64 0
  store float %11, ptr %13, align 4, !tbaa !14
  %14 = load ptr, ptr %3, align 8, !tbaa !47
  %15 = getelementptr inbounds float, ptr %14, i64 1
  %16 = load float, ptr %15, align 4, !tbaa !14
  %17 = load ptr, ptr %4, align 8, !tbaa !47
  %18 = getelementptr inbounds float, ptr %17, i64 1
  %19 = load float, ptr %18, align 4, !tbaa !14
  %20 = fadd float %16, %19
  %21 = load ptr, ptr %3, align 8, !tbaa !47
  %22 = getelementptr inbounds float, ptr %21, i64 1
  store float %20, ptr %22, align 4, !tbaa !14
  %23 = load ptr, ptr %3, align 8, !tbaa !47
  %24 = getelementptr inbounds float, ptr %23, i64 2
  %25 = load float, ptr %24, align 4, !tbaa !14
  %26 = load ptr, ptr %4, align 8, !tbaa !47
  %27 = getelementptr inbounds float, ptr %26, i64 2
  %28 = load float, ptr %27, align 4, !tbaa !14
  %29 = fadd float %25, %28
  %30 = load ptr, ptr %3, align 8, !tbaa !47
  %31 = getelementptr inbounds float, ptr %30, i64 2
  store float %29, ptr %31, align 4, !tbaa !14
  ret void
}

; Function Attrs: inlinehint mustprogress nounwind uwtable
define linkonce_odr hidden void @_ZN19OpenColorIO_v2_5dev10ApplyScaleEPfPKf(ptr noundef %0, ptr noundef %1) #9 comdat {
  %3 = alloca ptr, align 8
  %4 = alloca ptr, align 8
  store ptr %0, ptr %3, align 8, !tbaa !47
  store ptr %1, ptr %4, align 8, !tbaa !47
  %5 = load ptr, ptr %3, align 8, !tbaa !47
  %6 = getelementptr inbounds float, ptr %5, i64 0
  %7 = load float, ptr %6, align 4, !tbaa !14
  %8 = load ptr, ptr %4, align 8, !tbaa !47
  %9 = getelementptr inbounds float, ptr %8, i64 0
  %10 = load float, ptr %9, align 4, !tbaa !14
  %11 = fmul float %7, %10
  %12 = load ptr, ptr %3, align 8, !tbaa !47
  %13 = getelementptr inbounds float, ptr %12, i64 0
  store float %11, ptr %13, align 4, !tbaa !14
  %14 = load ptr, ptr %3, align 8, !tbaa !47
  %15 = getelementptr inbounds float, ptr %14, i64 1
  %16 = load float, ptr %15, align 4, !tbaa !14
  %17 = load ptr, ptr %4, align 8, !tbaa !47
  %18 = getelementptr inbounds float, ptr %17, i64 1
  %19 = load float, ptr %18, align 4, !tbaa !14
  %20 = fmul float %16, %19
  %21 = load ptr, ptr %3, align 8, !tbaa !47
  %22 = getelementptr inbounds float, ptr %21, i64 1
  store float %20, ptr %22, align 4, !tbaa !14
  %23 = load ptr, ptr %3, align 8, !tbaa !47
  %24 = getelementptr inbounds float, ptr %23, i64 2
  %25 = load float, ptr %24, align 4, !tbaa !14
  %26 = load ptr, ptr %4, align 8, !tbaa !47
  %27 = getelementptr inbounds float, ptr %26, i64 2
  %28 = load float, ptr %27, align 4, !tbaa !14
  %29 = fmul float %25, %28
  %30 = load ptr, ptr %3, align 8, !tbaa !47
  %31 = getelementptr inbounds float, ptr %30, i64 2
  store float %29, ptr %31, align 4, !tbaa !14
  ret void
}

; Function Attrs: mustprogress uwtable
define hidden void @_ZNK19OpenColorIO_v2_5dev15Lin2LogRenderer5applyEPKvPvl(ptr noundef nonnull align 8 dereferenceable(136) %0, ptr noundef %1, ptr noundef %2, i64 noundef %3) unnamed_addr #4 align 2 {
  %5 = alloca ptr, align 8
  %6 = alloca ptr, align 8
  %7 = alloca ptr, align 8
  %8 = alloca i64, align 8
  %9 = alloca ptr, align 8
  %10 = alloca ptr, align 8
  %11 = alloca i64, align 8
  %12 = alloca float, align 4
  store ptr %0, ptr %5, align 8, !tbaa !148
  store ptr %1, ptr %6, align 8, !tbaa !124
  store ptr %2, ptr %7, align 8, !tbaa !124
  store i64 %3, ptr %8, align 8, !tbaa !115
  %13 = load ptr, ptr %5, align 8
  call void @llvm.lifetime.start.p0(i64 8, ptr %9) #3
  %14 = load ptr, ptr %6, align 8, !tbaa !124
  store ptr %14, ptr %9, align 8, !tbaa !47
  call void @llvm.lifetime.start.p0(i64 8, ptr %10) #3
  %15 = load ptr, ptr %7, align 8, !tbaa !124
  store ptr %15, ptr %10, align 8, !tbaa !47
  call void @llvm.lifetime.start.p0(i64 8, ptr %11) #3
  store i64 0, ptr %11, align 8, !tbaa !115
  br label %16

16:                                               ; preds = %48, %4
  %17 = load i64, ptr %11, align 8, !tbaa !115
  %18 = load i64, ptr %8, align 8, !tbaa !115
  %19 = icmp slt i64 %17, %18
  br i1 %19, label %21, label %20

20:                                               ; preds = %16
  call void @llvm.lifetime.end.p0(i64 8, ptr %11) #3
  br label %51

21:                                               ; preds = %16
  call void @llvm.lifetime.start.p0(i64 4, ptr %12) #3
  %22 = load ptr, ptr %9, align 8, !tbaa !47
  %23 = getelementptr inbounds float, ptr %22, i64 3
  %24 = load float, ptr %23, align 4, !tbaa !14
  store float %24, ptr %12, align 4, !tbaa !14
  %25 = load ptr, ptr %10, align 8, !tbaa !47
  %26 = load ptr, ptr %9, align 8, !tbaa !47
  call void @llvm.memcpy.p0.p0.i64(ptr align 4 %25, ptr align 4 %26, i64 16, i1 false)
  %27 = load ptr, ptr %10, align 8, !tbaa !47
  %28 = getelementptr inbounds nuw %"class.OpenColorIO_v2_5dev::Lin2LogRenderer", ptr %13, i32 0, i32 1
  %29 = getelementptr inbounds [3 x float], ptr %28, i64 0, i64 0
  call void @_ZN19OpenColorIO_v2_5dev10ApplyScaleEPfPKf(ptr noundef %27, ptr noundef %29)
  %30 = load ptr, ptr %10, align 8, !tbaa !47
  %31 = getelementptr inbounds nuw %"class.OpenColorIO_v2_5dev::Lin2LogRenderer", ptr %13, i32 0, i32 2
  %32 = getelementptr inbounds [3 x float], ptr %31, i64 0, i64 0
  call void @_ZN19OpenColorIO_v2_5dev8ApplyAddEPfPKf(ptr noundef %30, ptr noundef %32)
  %33 = load ptr, ptr %10, align 8, !tbaa !47
  call void @_ZN19OpenColorIO_v2_5dev8ApplyMaxEPff(ptr noundef %33, float noundef 0x3810000000000000)
  %34 = load ptr, ptr %10, align 8, !tbaa !47
  call void @_ZN19OpenColorIO_v2_5dev9ApplyLog2EPf(ptr noundef %34)
  %35 = load ptr, ptr %10, align 8, !tbaa !47
  %36 = getelementptr inbounds nuw %"class.OpenColorIO_v2_5dev::Lin2LogRenderer", ptr %13, i32 0, i32 3
  %37 = getelementptr inbounds [3 x float], ptr %36, i64 0, i64 0
  call void @_ZN19OpenColorIO_v2_5dev10ApplyScaleEPfPKf(ptr noundef %35, ptr noundef %37)
  %38 = load ptr, ptr %10, align 8, !tbaa !47
  %39 = getelementptr inbounds nuw %"class.OpenColorIO_v2_5dev::Lin2LogRenderer", ptr %13, i32 0, i32 4
  %40 = getelementptr inbounds [3 x float], ptr %39, i64 0, i64 0
  call void @_ZN19OpenColorIO_v2_5dev8ApplyAddEPfPKf(ptr noundef %38, ptr noundef %40)
  %41 = load float, ptr %12, align 4, !tbaa !14
  %42 = load ptr, ptr %10, align 8, !tbaa !47
  %43 = getelementptr inbounds float, ptr %42, i64 3
  store float %41, ptr %43, align 4, !tbaa !14
  %44 = load ptr, ptr %10, align 8, !tbaa !47
  %45 = getelementptr inbounds float, ptr %44, i64 4
  store ptr %45, ptr %10, align 8, !tbaa !47
  %46 = load ptr, ptr %9, align 8, !tbaa !47
  %47 = getelementptr inbounds float, ptr %46, i64 4
  store ptr %47, ptr %9, align 8, !tbaa !47
  call void @llvm.lifetime.end.p0(i64 4, ptr %12) #3
  br label %48

48:                                               ; preds = %21
  %49 = load i64, ptr %11, align 8, !tbaa !115
  %50 = add nsw i64 %49, 1
  store i64 %50, ptr %11, align 8, !tbaa !115
  br label %16, !llvm.loop !150

51:                                               ; preds = %20
  call void @llvm.lifetime.end.p0(i64 8, ptr %10) #3
  call void @llvm.lifetime.end.p0(i64 8, ptr %9) #3
  ret void
}