; Function Attrs: mustprogress nofree norecurse nosync nounwind memory(argmem: readwrite) uwtable
define hidden void @_ZNK19OpenColorIO_v2_5dev15Lin2LogRenderer5applyEPKvPvl(ptr noundef nonnull readonly align 8 captures(none) dereferenceable(136) %0, ptr noundef readonly captures(none) %1, ptr noundef captures(none) %2, i64 noundef %3) unnamed_addr #8 align 2 {
  %5 = icmp sgt i64 %3, 0
  br i1 %5, label %.lr.ph, label %._crit_edge

.lr.ph:                                           ; preds = %4
  %6 = getelementptr inbounds nuw i8, ptr %0, i64 88
  %7 = getelementptr inbounds nuw i8, ptr %0, i64 92
  %8 = getelementptr inbounds nuw i8, ptr %0, i64 96
  %9 = getelementptr inbounds nuw i8, ptr %0, i64 100
  %10 = getelementptr inbounds nuw i8, ptr %0, i64 104
  %11 = getelementptr inbounds nuw i8, ptr %0, i64 108
  %12 = getelementptr inbounds nuw i8, ptr %0, i64 112
  %13 = getelementptr inbounds nuw i8, ptr %0, i64 116
  %14 = getelementptr inbounds nuw i8, ptr %0, i64 120
  %15 = getelementptr inbounds nuw i8, ptr %0, i64 124
  %16 = getelementptr inbounds nuw i8, ptr %0, i64 128
  %17 = getelementptr inbounds nuw i8, ptr %0, i64 132
  br label %18

._crit_edge:                                      ; preds = %18, %4
  ret void

18:                                               ; preds = %.lr.ph, %18
  %.022 = phi ptr [ %1, %.lr.ph ], [ %58, %18 ]
  %.01821 = phi i64 [ 0, %.lr.ph ], [ %59, %18 ]
  %.01920 = phi ptr [ %2, %.lr.ph ], [ %57, %18 ]
  %19 = getelementptr inbounds nuw i8, ptr %.022, i64 12
  %20 = load float, ptr %19, align 4, !tbaa !111
  tail call void @llvm.memcpy.p0.p0.i64(ptr noundef nonnull align 4 dereferenceable(16) %.01920, ptr noundef nonnull align 4 dereferenceable(16) %.022, i64 16, i1 false)
  %21 = load float, ptr %.01920, align 4, !tbaa !111
  %22 = load float, ptr %6, align 8, !tbaa !111
  %23 = fmul float %21, %22
  store float %23, ptr %.01920, align 4, !tbaa !111
  %24 = getelementptr inbounds nuw i8, ptr %.01920, i64 4
  %25 = load float, ptr %24, align 4, !tbaa !111
  %26 = load float, ptr %7, align 4, !tbaa !111
  %27 = fmul float %25, %26
  store float %27, ptr %24, align 4, !tbaa !111
  %28 = getelementptr inbounds nuw i8, ptr %.01920, i64 8
  %29 = load float, ptr %28, align 4, !tbaa !111
  %30 = load float, ptr %8, align 8, !tbaa !111
  %31 = fmul float %29, %30
  store float %31, ptr %28, align 4, !tbaa !111
  %32 = load float, ptr %9, align 4, !tbaa !111
  %33 = fadd float %23, %32
  store float %33, ptr %.01920, align 4, !tbaa !111
  %34 = load float, ptr %10, align 8, !tbaa !111
  %35 = fadd float %27, %34
  store float %35, ptr %24, align 4, !tbaa !111
  %36 = load float, ptr %11, align 4, !tbaa !111
  %37 = fadd float %31, %36
  %38 = fcmp ogt float %33, 0x3810000000000000
  %.sroa.speculated15.i = select i1 %38, float %33, float 0x3810000000000000
  %39 = fcmp ogt float %35, 0x3810000000000000
  %.sroa.speculated12.i = select i1 %39, float %35, float 0x3810000000000000
  %40 = fcmp ogt float %37, 0x3810000000000000
  %.sroa.speculated.i = select i1 %40, float %37, float 0x3810000000000000
  %41 = tail call float @llvm.log2.f32(float %.sroa.speculated15.i), !tbaa !112
  store float %41, ptr %.01920, align 4, !tbaa !111
  %42 = tail call float @llvm.log2.f32(float %.sroa.speculated12.i), !tbaa !112
  store float %42, ptr %24, align 4, !tbaa !111
  %43 = tail call float @llvm.log2.f32(float %.sroa.speculated.i), !tbaa !112
  store float %43, ptr %28, align 4, !tbaa !111
  %44 = load float, ptr %12, align 8, !tbaa !111
  %45 = fmul float %41, %44
  store float %45, ptr %.01920, align 4, !tbaa !111
  %46 = load float, ptr %13, align 4, !tbaa !111
  %47 = fmul float %42, %46
  store float %47, ptr %24, align 4, !tbaa !111
  %48 = load float, ptr %14, align 8, !tbaa !111
  %49 = fmul float %43, %48
  store float %49, ptr %28, align 4, !tbaa !111
  %50 = load float, ptr %15, align 4, !tbaa !111
  %51 = fadd float %45, %50
  store float %51, ptr %.01920, align 4, !tbaa !111
  %52 = load float, ptr %16, align 8, !tbaa !111
  %53 = fadd float %47, %52
  store float %53, ptr %24, align 4, !tbaa !111
  %54 = load float, ptr %17, align 4, !tbaa !111
  %55 = fadd float %49, %54
  store float %55, ptr %28, align 4, !tbaa !111
  %56 = getelementptr inbounds nuw i8, ptr %.01920, i64 12
  store float %20, ptr %56, align 4, !tbaa !111
  %57 = getelementptr inbounds nuw i8, ptr %.01920, i64 16
  %58 = getelementptr inbounds nuw i8, ptr %.022, i64 16
  %59 = add nuw nsw i64 %.01821, 1
  %exitcond.not = icmp eq i64 %59, %3
  br i1 %exitcond.not, label %._crit_edge, label %18, !llvm.loop !122
}